target datalayout = "e-m:e-p270:32:32-p271:32:32-p272:64:64-i64:64-i128:128-f80:128-n8:16:32:64-S128"
target triple = "x86_64-pc-linux-gnu"

; Function Attrs: nounwind uwtable
define internal i32 @rc2_einit(ptr noundef %0, ptr noundef %1, i64 noundef %2, ptr noundef %3, i64 noundef %4, ptr noundef %5) #0 {
  %7 = alloca i32, align 4
  %8 = alloca ptr, align 8
  %9 = alloca ptr, align 8
  %10 = alloca i64, align 8
  %11 = alloca ptr, align 8
  %12 = alloca i64, align 8
  %13 = alloca ptr, align 8
  store ptr %0, ptr %8, align 8, !tbaa !3
  store ptr %1, ptr %9, align 8, !tbaa !21
  store i64 %2, ptr %10, align 8, !tbaa !20
  store ptr %3, ptr %11, align 8, !tbaa !21
  store i64 %4, ptr %12, align 8, !tbaa !20
  store ptr %5, ptr %13, align 8, !tbaa !24
  %14 = load ptr, ptr %8, align 8, !tbaa !3
  %15 = load ptr, ptr %9, align 8, !tbaa !21
  %16 = load i64, ptr %10, align 8, !tbaa !20
  %17 = load ptr, ptr %11, align 8, !tbaa !21
  %18 = load i64, ptr %12, align 8, !tbaa !20
  %19 = call i32 @ossl_cipher_generic_einit(ptr noundef %14, ptr noundef %15, i64 noundef %16, ptr noundef %17, i64 noundef %18, ptr noundef null)
  %20 = icmp ne i32 %19, 0
  br i1 %20, label %22, label %21

21:                                               ; preds = %6
  store i32 0, ptr %7, align 4
  br label %26

22:                                               ; preds = %6
  %23 = load ptr, ptr %8, align 8, !tbaa !3
  %24 = load ptr, ptr %13, align 8, !tbaa !24
  %25 = call i32 @rc2_set_ctx_params(ptr noundef %23, ptr noundef %24)
  store i32 %25, ptr %7, align 4
  br label %26

26:                                               ; preds = %22, %21
  %27 = load i32, ptr %7, align 4
  ret i32 %27
}