; Function Attrs: nounwind uwtable
define internal range(i32 0, 2) i32 @rc2_einit(ptr noundef %0, ptr noundef %1, i64 noundef %2, ptr noundef %3, i64 noundef %4, ptr noundef %5) #0 {
  %7 = tail call i32 @ossl_cipher_generic_einit(ptr noundef %0, ptr noundef %1, i64 noundef %2, ptr noundef %3, i64 noundef %4, ptr noundef null) #5
  %.not = icmp eq i32 %7, 0
  br i1 %.not, label %10, label %8

8:                                                ; preds = %6
  %9 = tail call i32 @rc2_set_ctx_params(ptr noundef %0, ptr noundef %5)
  br label %10

10:                                               ; preds = %6, %8
  %.0 = phi i32 [ %9, %8 ], [ 0, %6 ]
  ret i32 %.0
}